target datalayout = "e-m:e-p270:32:32-p271:32:32-p272:64:64-i64:64-i128:128-f80:128-n8:16:32:64-S128"
target triple = "x86_64-pc-linux-gnu"

@.str.18 = private unnamed_addr constant [2 x i8] c"{\00", align 1
@.str.19 = private unnamed_addr constant [4 x i8] c" %d\00", align 1
@.str.20 = private unnamed_addr constant [4 x i8] c" }\0A\00", align 1

; Function Attrs: nounwind uwtable
define void @Gia_StoCutPrint(ptr noundef %0) #0 {
  %2 = alloca ptr, align 8
  %3 = alloca i32, align 4
  store ptr %0, ptr %2, align 8, !tbaa !56
  call void @llvm.lifetime.start.p0(i64 4, ptr %3) #12
  %4 = call i32 (ptr, ...) @printf(ptr noundef @.str.18)
  store i32 1, ptr %3, align 4, !tbaa !8
  br label %5

5:                                                ; preds = %18, %1
  %6 = load i32, ptr %3, align 4, !tbaa !8
  %7 = load ptr, ptr %2, align 8, !tbaa !56
  %8 = getelementptr inbounds i32, ptr %7, i64 0
  %9 = load i32, ptr %8, align 4, !tbaa !8
  %10 = icmp sle i32 %6, %9
  br i1 %10, label %11, label %21

11:                                               ; preds = %5
  %12 = load ptr, ptr %2, align 8, !tbaa !56
  %13 = load i32, ptr %3, align 4, !tbaa !8
  %14 = sext i32 %13 to i64
  %15 = getelementptr inbounds i32, ptr %12, i64 %14
  %16 = load i32, ptr %15, align 4, !tbaa !8
  %17 = call i32 (ptr, ...) @printf(ptr noundef @.str.19, i32 noundef %16)
  br label %18

18:                                               ; preds = %11
  %19 = load i32, ptr %3, align 4, !tbaa !8
  %20 = add nsw i32 %19, 1
  store i32 %20, ptr %3, align 4, !tbaa !8
  br label %5, !llvm.loop !115

21:                                               ; preds = %5
  %22 = call i32 (ptr, ...) @printf(ptr noundef @.str.20)
  call void @llvm.lifetime.end.p0(i64 4, ptr %3) #12
  ret void
}