; Function Attrs: nofree nounwind uwtable
define void @Gia_StoCutPrint(ptr noundef readonly captures(none) %0) local_unnamed_addr #8 {
  %putchar = tail call i32 @putchar(i32 123)
  %2 = load i32, ptr %0, align 4, !tbaa !37
  %.not4 = icmp slt i32 %2, 1
  br i1 %.not4, label %._crit_edge, label %.lr.ph

.lr.ph:                                           ; preds = %1, %.lr.ph
  %indvars.iv = phi i64 [ %indvars.iv.next, %.lr.ph ], [ 1, %1 ]
  %3 = getelementptr inbounds nuw i32, ptr %0, i64 %indvars.iv
  %4 = load i32, ptr %3, align 4, !tbaa !37
  %5 = tail call i32 (ptr, ...) @printf(ptr noundef nonnull dereferenceable(1) @.str.19, i32 noundef %4)
  %indvars.iv.next = add nuw nsw i64 %indvars.iv, 1
  %6 = load i32, ptr %0, align 4, !tbaa !37
  %7 = sext i32 %6 to i64
  %.not.not = icmp slt i64 %indvars.iv, %7
  br i1 %.not.not, label %.lr.ph, label %._crit_edge, !llvm.loop !132

._crit_edge:                                      ; preds = %.lr.ph, %1
  %puts = tail call i32 @puts(ptr nonnull dereferenceable(1) @str.2)
  ret void
}